Certificate:
    Data:
        Version: 3 (0x2)
        Serial Number: 1 (0x1)
    Signature Algorithm: sha1WithRSAEncryption
        Issuer: C=US, ST=Unset, L=Unset, O=Unset, CN=www.example.com
        Validity
            Not Before: Oct 24 23:38:46 2015 GMT
            Not After : Oct 21 23:38:46 2025 GMT
        Subject: C=US, ST=Unset, O=Unset, CN=www.example.com
        Subject Public Key Info:
            Public Key Algorithm: rsaEncryption
                Public-Key: (2048 bit)
                Modulus:
                    00:cc:1b:5a:92:39:aa:63:24:17:d7:ae:bc:84:64:
                    97:b7:1b:f6:c1:60:9e:68:bc:69:c6:82:27:ad:9a:
                    1c:38:3f:89:d3:ba:af:18:48:c9:06:6f:42:ed:57:
                    8c:c8:3a:16:a4:be:af:5c:6a:0c:65:8a:8f:9c:6a:
                    3c:a9:99:d8:52:36:3d:92:2d:1c:01:0a:79:68:ae:
                    43:9f:5b:3c:8d:18:0a:17:c2:47:dc:59:b7:4e:55:
                    fc:e0:99:9d:73:5f:92:48:f6:af:ad:b4:67:44:94:
                    bf:3c:4b:39:46:0f:65:9d:50:0b:18:ab:b7:9e:7d:
                    fe:3c:30:75:64:81:c0:37:5f:89:60:6e:52:b7:16:
                    6c:e5:4c:7c:96:56:df:1e:ea:f0:35:b1:79:ea:aa:
                    80:54:8b:85:c3:35:91:58:51:a1:c5:0b:b6:f4:f0:
                    81:24:8b:f2:fb:85:e6:02:f7:71:fe:e8:1f:57:27:
                    9a:aa:72:89:19:51:ac:f1:d2:cf:1c:c2:98:17:3c:
                    31:2d:91:26:1f:5f:1f:e2:8f:8c:58:2c:a6:01:d5:
                    e2:79:ae:d8:aa:37:44:be:fe:f4:73:47:83:f0:12:
                    36:b2:7d:61:6a:ba:97:0e:93:31:05:5c:44:83:47:
                    d5:ff:76:c3:b4:b4:b6:96:15:52:39:65:7f:12:f6:
                    ce:8d
                Exponent: 65537 (0x10001)
        X509v3 extensions:
            X509v3 Basic Constraints: 
                CA:FALSE
            X509v3 Subject Key Identifier: 
                2B:A2:C3:90:DC:A8:7F:6A:18:7A:33:D6:76:95:F8:86:75:58:C5:D7
            X509v3 Authority Key Identifier: 
                keyid:01:D7:A0:7C:05:B1:B5:5E:F2:F4:E6:79:60:97:08:68:69:A6:B3:65

    Signature Algorithm: sha1WithRSAEncryption
         64:b6:20:dd:02:c9:53:11:9f:39:cb:6f:ed:1b:1a:72:bd:23:
         d0:9d:6b:a3:f0:73:5f:a5:2b:ae:a4:7e:97:41:ef:37:5c:51:
         c6:4a:d5:20:98:90:52:4f:d7:9f:cc:19:7a:17:78:3e:54:da:
         09:38:27:d2:19:fd:c8:2d:90:ec:94:a3:fc:9d:30:d2:be:b2:
         07:bb:47:81:0a:0e:a3:20:a5:34:ca:60:92:12:75:0c:0e:6f:
         8b:1b:2b:50:44:ef:01:9c:aa:09:6d:1a:81:bd:b0:52:e7:f2:
         76:c8:96:07:30:86:ca:c3:69:cf:34:97:e2:0c:56:6d:6a:24:
         f2:b7:73:a5:30:f6:17:85:e8:33:89:f1:76:d9:54:c6:d6:d8:
         b1:a9:a3:f8:3e:05:a3:e3:ba:04:c9:1b:56:01:df:80:11:57:
         f4:e0:96:19:3f:3c:7f:f9:6c:5e:37:6c:13:11:41:51:84:d2:
         41:de:0d:9d:44:c0:b2:56:96:ed:f3:9a:09:d2:8c:8e:d0:ad:
         93:8e:ea:7f:0d:ad:22:13:e8:c0:7d:3a:30:0b:c0:8d:20:64:
         0d:2a:42:a2:0b:a2:c2:8d:6d:64:cb:13:59:42:b9:95:42:48:
         c1:e3:6a:64:d5:65:8a:01:f7:f7:8f:fb:0d:98:40:b2:16:45:
         2c:ef:3d:29
-----BEGIN CERTIFICATE-----
MIIDZjCCAk6gAwIBAgIBATANBgkqhkiG9w0BAQUFADBXMQswCQYDVQQGEwJVUzEO
MAwGA1UECAwFVW5zZXQxDjAMBgNVBAcMBVVuc2V0MQ4wDAYDVQQKDAVVbnNldDEY
MBYGA1UEAwwPd3d3LmV4YW1wbGUuY29tMB4XDTE1MTAyNDIzMzg0NloXDTI1MTAy
MTIzMzg0NlowRzELMAkGA1UEBhMCVVMxDjAMBgNVBAgMBVVuc2V0MQ4wDAYDVQQK
DAVVbnNldDEYMBYGA1UEAwwPd3d3LmV4YW1wbGUuY29tMIIBIjANBgkqhkiG9w0B
AQEFAAOCAQ8AMIIBCgKCAQEAzBtakjmqYyQX1668hGSXtxv2wWCeaLxpxoInrZoc
OD+J07qvGEjJBm9C7VeMyDoWpL6vXGoMZYqPnGo8qZnYUjY9ki0cAQp5aK5Dn1s8
jRgKF8JH3Fm3TlX84Jmdc1+SSPavrbRnRJS/PEs5Rg9lnVALGKu3nn3+PDB1ZIHA
N1+JYG5StxZs5Ux8llbfHurwNbF56qqAVIuFwzWRWFGhxQu29PCBJIvy+4XmAvdx
/ugfVyeaqnKJGVGs8dLPHMKYFzwxLZEmH18f4o+MWCymAdXiea7YqjdEvv70c0eD
8BI2sn1harqXDpMxBVxEg0fV/3bDtLS2lhVSOWV/EvbOjQIDAQABo00wSzAJBgNV
HRMEAjAAMB0GA1UdDgQWBBQrosOQ3Kh/ahh6M9Z2lfiGdVjF1zAfBgNVHSMEGDAW
gBQB16B8BbG1XvL05nlglwhoaaazZTANBgkqhkiG9w0BAQUFAAOCAQEAZLYg3QLJ
UxGfOctv7Rsacr0j0J1ro/BzX6UrrqR+l0HvN1xRxkrVIJiQUk/Xn8wZehd4PlTa
CTgn0hn9yC2Q7JSj/J0w0r6yB7tHgQoOoyClNMpgkhJ1DA5vixsrUETvAZyqCW0a
gb2wUufydsiWBzCGysNpzzSX4gxWbWok8rdzpTD2F4XoM4nxdtlUxtbYsamj+D4F
o+O6BMkbVgHfgBFX9OCWGT88f/lsXjdsExFBUYTSQd4NnUTAslaW7fOaCdKMjtCt
k47qfw2tIhPowH06MAvAjSBkDSpCoguiwo1tZMsTWUK5lUJIweNqZNVligH394/7
DZhAshZFLO89KQ==
-----END CERTIFICATE-----
